; ModuleID = '30/2790.c'
source_filename = "30/2790.c"
target datalayout = "e-m:e-p270:32:32-p271:32:32-p272:64:64-i64:64-f80:128-n8:16:32:64-S128"
target triple = "x86_64-pc-linux-gnu"

@.str = private unnamed_addr constant [3 x i8] c"%d\00", align 1

; Function Attrs: noinline nounwind uwtable
define dso_local i32 @main() #0 {
  %1 = alloca i32, align 4
  %2 = alloca i32, align 4
  %3 = alloca i32, align 4
  %4 = alloca i32, align 4
  %5 = alloca i32, align 4
  %6 = alloca i32, align 4
  store i32 0, i32* %1, align 4
  %7 = call i32 (i8*, ...) @__isoc99_scanf(i8* getelementptr inbounds ([3 x i8], [3 x i8]* @.str, i64 0, i64 0), i32* %2)
  store i32 0, i32* %6, align 4
  store i32 0, i32* %4, align 4
  br label %8

8:                                                ; preds = %44, %0
  %9 = load i32, i32* %4, align 4
  %10 = icmp sle i32 %9, 9
  br i1 %10, label %11, label %47

11:                                               ; preds = %8
  store i32 0, i32* %5, align 4
  br label %12

12:                                               ; preds = %40, %11
  %13 = load i32, i32* %5, align 4
  %14 = icmp sle i32 %13, 9
  br i1 %14, label %15, label %43

15:                                               ; preds = %12
  %16 = load i32, i32* %4, align 4
  %17 = mul nsw i32 %16, 10
  %18 = load i32, i32* %5, align 4
  %19 = add nsw i32 %17, %18
  store i32 %19, i32* %3, align 4
  %20 = load i32, i32* %3, align 4
  %21 = load i32, i32* %2, align 4
  %22 = icmp sle i32 %20, %21
  br i1 %22, label %23, label %39

23:                                               ; preds = %15
  %24 = load i32, i32* %4, align 4
  %25 = icmp ne i32 %24, 7
  br i1 %25, label %26, label %39

26:                                               ; preds = %23
  %27 = load i32, i32* %5, align 4
  %28 = icmp ne i32 %27, 7
  br i1 %28, label %29, label %39

29:                                               ; preds = %26
  %30 = load i32, i32* %3, align 4
  %31 = srem i32 %30, 7
  %32 = icmp ne i32 %31, 0
  br i1 %32, label %33, label %39

33:                                               ; preds = %29
  %34 = load i32, i32* %6, align 4
  %35 = load i32, i32* %3, align 4
  %36 = load i32, i32* %3, align 4
  %37 = mul nsw i32 %35, %36
  %38 = add nsw i32 %34, %37
  store i32 %38, i32* %6, align 4
  br label %39

39:                                               ; preds = %33, %29, %26, %23, %15
  br label %40

40:                                               ; preds = %39
  %41 = load i32, i32* %5, align 4
  %42 = add nsw i32 %41, 1
  store i32 %42, i32* %5, align 4
  br label %12

43:                                               ; preds = %12
  br label %44

44:                                               ; preds = %43
  %45 = load i32, i32* %4, align 4
  %46 = add nsw i32 %45, 1
  store i32 %46, i32* %4, align 4
  br label %8

47:                                               ; preds = %8
  %48 = load i32, i32* %6, align 4
  %49 = call i32 (i8*, ...) @printf(i8* getelementptr inbounds ([3 x i8], [3 x i8]* @.str, i64 0, i64 0), i32 %48)
  ret i32 0
}

declare dso_local i32 @__isoc99_scanf(i8*, ...) #1

declare dso_local i32 @printf(i8*, ...) #1


!llvm.module.flags = !{!0}
!llvm.ident = !{!1}

!0 = !{i32 1, !"wchar_size", i32 4}
!1 = !{!"clang version 10.0.0-4ubuntu1 "}
